; Function Attrs: mustprogress nounwind uwtable
define hidden void @_ZN18AbstractDumpWriter8write_u1Eh(ptr noundef nonnull align 8 dereferenceable(34) %0, i8 noundef zeroext %1) local_unnamed_addr #3 align 2 {
  %3 = alloca i8, align 1
  store i8 %1, ptr %3, align 1
  %4 = getelementptr inbounds i8, ptr %0, i64 16
  %5 = load i64, ptr %4, align 8
  %6 = getelementptr inbounds i8, ptr %0, i64 24
  %7 = load i64, ptr %6, align 8
  %.not = icmp eq i64 %5, %7
  br i1 %.not, label %14, label %8

8:                                                ; preds = %2
  %9 = getelementptr inbounds i8, ptr %0, i64 8
  %10 = load ptr, ptr %9, align 8
  %11 = getelementptr inbounds i8, ptr %10, i64 %7
  store i8 %1, ptr %11, align 1
  %12 = load i64, ptr %6, align 8
  %13 = add i64 %12, 1
  store i64 %13, ptr %6, align 8
  br label %18

14:                                               ; preds = %2
  %15 = load ptr, ptr %0, align 8
  %16 = getelementptr inbounds i8, ptr %15, i64 16
  %17 = load ptr, ptr %16, align 8
  call void %17(ptr noundef nonnull align 8 dereferenceable(34) %0, ptr noundef nonnull %3, i64 noundef 1) #19
  br label %18

18:                                               ; preds = %8, %14
  ret void
}